; Function Attrs: nounwind uwtable
define noundef ptr @Patt_ManTransposeErrors(ptr noundef readonly captures(none) %0, i32 noundef %1) local_unnamed_addr #0 {
  %3 = getelementptr i8, ptr %0, i64 4
  %.val15 = load i32, ptr %3, align 4, !tbaa !138
  %4 = sdiv i32 %.val15, %1
  %5 = ashr i32 %1, 6
  %6 = and i32 %1, 63
  %7 = icmp ne i32 %6, 0
  %8 = zext i1 %7 to i32
  %9 = add nsw i32 %5, %8
  %10 = shl nsw i32 %4, 6
  %11 = mul nsw i32 %10, %9
  %12 = tail call noalias dereferenceable_or_null(16) ptr @malloc(i64 noundef 16) #26
  store i32 %11, ptr %12, align 8, !tbaa !149
  %.not.i.i = icmp eq i32 %11, 0
  br i1 %.not.i.i, label %Vec_WrdStart.exit, label %13

13:                                               ; preds = %2
  %14 = sext i32 %11 to i64
  %15 = shl nsw i64 %14, 3
  %16 = tail call noalias ptr @malloc(i64 noundef %15) #26
  br label %Vec_WrdStart.exit

Vec_WrdStart.exit:                                ; preds = %2, %13
  %.pre-phi23 = phi i64 [ %15, %13 ], [ 0, %2 ]
  %17 = phi ptr [ %16, %13 ], [ null, %2 ]
  %18 = getelementptr inbounds nuw i8, ptr %12, i64 4
  %19 = getelementptr inbounds nuw i8, ptr %12, i64 8
  store ptr %17, ptr %19, align 8, !tbaa !136
  store i32 %11, ptr %18, align 4, !tbaa !138
  tail call void @llvm.memset.p0.i64(ptr align 8 %17, i8 0, i64 %.pre-phi23, i1 false)
  %20 = tail call noalias dereferenceable_or_null(16) ptr @malloc(i64 noundef 16) #26
  store i32 %11, ptr %20, align 8, !tbaa !149
  br i1 %.not.i.i, label %Vec_WrdStart.exit21, label %21

21:                                               ; preds = %Vec_WrdStart.exit
  %22 = tail call noalias ptr @malloc(i64 noundef %.pre-phi23) #26
  br label %Vec_WrdStart.exit21

Vec_WrdStart.exit21:                              ; preds = %Vec_WrdStart.exit, %21
  %23 = phi ptr [ %22, %21 ], [ null, %Vec_WrdStart.exit ]
  %24 = getelementptr inbounds nuw i8, ptr %20, i64 4
  %25 = getelementptr inbounds nuw i8, ptr %20, i64 8
  store ptr %23, ptr %25, align 8, !tbaa !136
  store i32 %11, ptr %24, align 4, !tbaa !138
  tail call void @llvm.memset.p0.i64(ptr align 8 %23, i8 0, i64 %.pre-phi23, i1 false)
  %26 = getelementptr i8, ptr %0, i64 8
  %.val17 = load ptr, ptr %26, align 8, !tbaa !136
  %27 = icmp sgt i32 %.val15, 0
  br i1 %27, label %.lr.ph.preheader.i, label %Abc_TtCopy.exit

.lr.ph.preheader.i:                               ; preds = %Vec_WrdStart.exit21
  %wide.trip.count.i = zext nneg i32 %.val15 to i64
  br label %.lr.ph.i

.lr.ph.i:                                         ; preds = %.lr.ph.i, %.lr.ph.preheader.i
  %indvars.iv.i = phi i64 [ 0, %.lr.ph.preheader.i ], [ %indvars.iv.next.i, %.lr.ph.i ]
  %28 = getelementptr inbounds nuw i64, ptr %.val17, i64 %indvars.iv.i
  %29 = load i64, ptr %28, align 8, !tbaa !150
  %30 = getelementptr inbounds nuw i64, ptr %17, i64 %indvars.iv.i
  store i64 %29, ptr %30, align 8, !tbaa !150
  %indvars.iv.next.i = add nuw nsw i64 %indvars.iv.i, 1
  %exitcond.not.i = icmp eq i64 %indvars.iv.next.i, %wide.trip.count.i
  br i1 %exitcond.not.i, label %Abc_TtCopy.exit, label %.lr.ph.i, !llvm.loop !156

Abc_TtCopy.exit:                                  ; preds = %.lr.ph.i, %Vec_WrdStart.exit21
  tail call void @Extra_BitMatrixTransposeP(ptr noundef nonnull %12, i32 noundef %4, ptr noundef nonnull %20, i32 noundef %9) #27
  %31 = load ptr, ptr %19, align 8, !tbaa !136
  %.not.i = icmp eq ptr %31, null
  br i1 %.not.i, label %Vec_WrdFree.exit, label %32

32:                                               ; preds = %Abc_TtCopy.exit
  tail call void @free(ptr noundef nonnull %31) #27
  br label %Vec_WrdFree.exit

Vec_WrdFree.exit:                                 ; preds = %Abc_TtCopy.exit, %32
  tail call void @free(ptr noundef nonnull %12) #27
  ret ptr %20
}